; Function Attrs: mustprogress sspstrong uwtable
define void @_ZN3tbb6detail2r122threading_control_impl13adjust_demandENS1_24threading_control_clientEii(ptr noundef nonnull readonly align 8 captures(none) dereferenceable(40) %0, ptr %1, ptr readnone captures(none) %2, i32 noundef %3, i32 noundef %4) local_unnamed_addr #0 align 2 {
  %6 = getelementptr inbounds nuw i8, ptr %0, i64 16
  %7 = load ptr, ptr %6, align 8, !tbaa !54
  tail call void @_ZN3tbb6detail2r131thread_request_serializer_proxy26register_mandatory_requestEi(ptr noundef nonnull align 8 dereferenceable(64) %7, i32 noundef %3)
  %8 = load ptr, ptr %0, align 8, !tbaa !47
  %9 = load ptr, ptr %8, align 8, !tbaa !14
  %10 = getelementptr inbounds nuw i8, ptr %9, i64 48
  %11 = load ptr, ptr %10, align 8
  tail call void %11(ptr noundef nonnull align 8 dereferenceable(16) %8, ptr noundef nonnull align 8 dereferenceable(24) %1, i32 noundef %3, i32 noundef %4)
  ret void
}